target datalayout = "e-m:e-p270:32:32-p271:32:32-p272:64:64-i64:64-i128:128-f80:128-n8:16:32:64-S128"
target triple = "x86_64-pc-linux-gnu"

%struct._cmsTransformPluginChunkType = type { ptr }
%struct._cmsTransformCollection_st = type { ptr, i32, ptr }
%struct.cmsPluginTransform = type { %struct._cmsPluginBaseStruct, %union.anon }
%struct._cmsPluginBaseStruct = type { i32, i32, i32, ptr }
%union.anon = type { ptr }

; Function Attrs: nounwind uwtable
define hidden i32 @_cmsRegisterTransformPlugin(ptr noundef %0, ptr noundef %1) #0 {
  %3 = alloca i32, align 4
  %4 = alloca ptr, align 8
  %5 = alloca ptr, align 8
  %6 = alloca ptr, align 8
  %7 = alloca ptr, align 8
  %8 = alloca ptr, align 8
  store ptr %0, ptr %4, align 8
  store ptr %1, ptr %5, align 8
  %9 = load ptr, ptr %5, align 8
  store ptr %9, ptr %6, align 8
  %10 = load ptr, ptr %4, align 8
  %11 = call ptr @_cmsContextGetClientChunk(ptr noundef %10, i32 noundef 13)
  store ptr %11, ptr %8, align 8
  %12 = load ptr, ptr %5, align 8
  %13 = icmp eq ptr %12, null
  br i1 %13, label %14, label %17

14:                                               ; preds = %2
  %15 = load ptr, ptr %8, align 8
  %16 = getelementptr inbounds %struct._cmsTransformPluginChunkType, ptr %15, i32 0, i32 0
  store ptr null, ptr %16, align 8
  store i32 1, ptr %3, align 4
  br label %55

17:                                               ; preds = %2
  %18 = load ptr, ptr %6, align 8
  %19 = getelementptr inbounds %struct.cmsPluginTransform, ptr %18, i32 0, i32 1
  %20 = load ptr, ptr %19, align 8
  %21 = icmp eq ptr %20, null
  br i1 %21, label %22, label %23

22:                                               ; preds = %17
  store i32 0, ptr %3, align 4
  br label %55

23:                                               ; preds = %17
  %24 = load ptr, ptr %4, align 8
  %25 = call ptr @_cmsPluginMalloc(ptr noundef %24, i32 noundef 24)
  store ptr %25, ptr %7, align 8
  %26 = load ptr, ptr %7, align 8
  %27 = icmp eq ptr %26, null
  br i1 %27, label %28, label %29

28:                                               ; preds = %23
  store i32 0, ptr %3, align 4
  br label %55

29:                                               ; preds = %23
  %30 = load ptr, ptr %6, align 8
  %31 = getelementptr inbounds %struct.cmsPluginTransform, ptr %30, i32 0, i32 0
  %32 = getelementptr inbounds %struct._cmsPluginBaseStruct, ptr %31, i32 0, i32 1
  %33 = load i32, ptr %32, align 4
  %34 = icmp ult i32 %33, 2080
  br i1 %34, label %35, label %38

35:                                               ; preds = %29
  %36 = load ptr, ptr %7, align 8
  %37 = getelementptr inbounds %struct._cmsTransformCollection_st, ptr %36, i32 0, i32 1
  store i32 1, ptr %37, align 8
  br label %41

38:                                               ; preds = %29
  %39 = load ptr, ptr %7, align 8
  %40 = getelementptr inbounds %struct._cmsTransformCollection_st, ptr %39, i32 0, i32 1
  store i32 0, ptr %40, align 8
  br label %41

41:                                               ; preds = %38, %35
  %42 = load ptr, ptr %6, align 8
  %43 = getelementptr inbounds %struct.cmsPluginTransform, ptr %42, i32 0, i32 1
  %44 = load ptr, ptr %43, align 8
  %45 = load ptr, ptr %7, align 8
  %46 = getelementptr inbounds %struct._cmsTransformCollection_st, ptr %45, i32 0, i32 0
  store ptr %44, ptr %46, align 8
  %47 = load ptr, ptr %8, align 8
  %48 = getelementptr inbounds %struct._cmsTransformPluginChunkType, ptr %47, i32 0, i32 0
  %49 = load ptr, ptr %48, align 8
  %50 = load ptr, ptr %7, align 8
  %51 = getelementptr inbounds %struct._cmsTransformCollection_st, ptr %50, i32 0, i32 2
  store ptr %49, ptr %51, align 8
  %52 = load ptr, ptr %7, align 8
  %53 = load ptr, ptr %8, align 8
  %54 = getelementptr inbounds %struct._cmsTransformPluginChunkType, ptr %53, i32 0, i32 0
  store ptr %52, ptr %54, align 8
  store i32 1, ptr %3, align 4
  br label %55

55:                                               ; preds = %41, %28, %22, %14
  %56 = load i32, ptr %3, align 4
  ret i32 %56
}