; Function Attrs: nounwind uwtable
define hidden range(i32 0, 2) i32 @_cmsRegisterTransformPlugin(ptr noundef %0, ptr noundef readonly %1) local_unnamed_addr #0 {
  %3 = tail call ptr @_cmsContextGetClientChunk(ptr noundef %0, i32 noundef 13) #11
  %4 = icmp eq ptr %1, null
  br i1 %4, label %.sink.split, label %5

5:                                                ; preds = %2
  %6 = getelementptr inbounds i8, ptr %1, i64 24
  %7 = load ptr, ptr %6, align 8
  %8 = icmp eq ptr %7, null
  br i1 %8, label %20, label %9

9:                                                ; preds = %5
  %10 = tail call ptr @_cmsPluginMalloc(ptr noundef %0, i32 noundef 24) #11
  %11 = icmp eq ptr %10, null
  br i1 %11, label %20, label %12

12:                                               ; preds = %9
  %13 = getelementptr inbounds i8, ptr %1, i64 4
  %14 = load i32, ptr %13, align 4
  %15 = icmp ult i32 %14, 2080
  %spec.select = zext i1 %15 to i32
  %16 = getelementptr inbounds i8, ptr %10, i64 8
  store i32 %spec.select, ptr %16, align 8
  %17 = load ptr, ptr %6, align 8
  store ptr %17, ptr %10, align 8
  %18 = load ptr, ptr %3, align 8
  %19 = getelementptr inbounds i8, ptr %10, i64 16
  store ptr %18, ptr %19, align 8
  br label %.sink.split

.sink.split:                                      ; preds = %2, %12
  %.sink = phi ptr [ %10, %12 ], [ null, %2 ]
  store ptr %.sink, ptr %3, align 8
  br label %20

20:                                               ; preds = %.sink.split, %9, %5
  %.0 = phi i32 [ 0, %5 ], [ 0, %9 ], [ 1, %.sink.split ]
  ret i32 %.0
}